# SymbolsHelper-Confirmed: 4:15.12.1 hppa sparc64 x32
libkonq.so.5abi1 libkonq5abi1 #MINVER#
 ABI_5_1@ABI_5_1 4:4.6.1
 (optional=templinst)_Z17qRegisterMetaTypeI9KFileItemEiPKcPT_@ABI_5_1 4:15.12.1
 (optional=templinst)_Z21qMetaTypeDeleteHelperI4KUrlEvPT_@ABI_5_1 4:15.12.1
 (optional=templinst)_Z21qMetaTypeDeleteHelperI9KFileItemEvPT_@ABI_5_1 4:15.12.1
 (optional=templinst)_Z24qMetaTypeConstructHelperI4KUrlEPvPKT_@ABI_5_1 4:15.12.1
 (optional=templinst)_Z24qMetaTypeConstructHelperI9KFileItemEPvPKT_@ABI_5_1 4:15.12.1
 _ZN12KonqMimeData16populateMimeDataEP9QMimeDataRKN4KUrl4ListES5_b@ABI_5_1 4:4.6.1
 _ZN12KonqMimeData17addIsCutSelectionEP9QMimeDatab@ABI_5_1 4:4.6.1
 _ZN12KonqMimeData20decodeIsCutSelectionEPK9QMimeData@ABI_5_1 4:4.6.1
 _ZN13KonqPopupMenu11qt_metacallEN11QMetaObject4CallEiPPv@ABI_5_1 4:4.6.1
 _ZN13KonqPopupMenu11qt_metacastEPKc@ABI_5_1 4:4.6.1
 _ZN13KonqPopupMenu11setURLTitleERK7QString@ABI_5_1 4:4.6.1
 _ZN13KonqPopupMenu16staticMetaObjectE@ABI_5_1 4:4.6.1
 _ZN13KonqPopupMenuC1ERK13KFileItemListRK4KUrlR17KActionCollectionP12KNewFileMenuj6QFlagsIN6KParts16BrowserExtension9PopupFlagEEP7QWidgetP16KBookmarkManagerRK4QMapI7QString5QListIP7QActionEE@ABI_5_1 4:4.6.1
 _ZN13KonqPopupMenuC2ERK13KFileItemListRK4KUrlR17KActionCollectionP12KNewFileMenuj6QFlagsIN6KParts16BrowserExtension9PopupFlagEEP7QWidgetP16KBookmarkManagerRK4QMapI7QString5QListIP7QActionEE@ABI_5_1 4:4.6.1
 _ZN13KonqPopupMenuD0Ev@ABI_5_1 4:4.6.1
 _ZN13KonqPopupMenuD1Ev@ABI_5_1 4:4.6.1
 _ZN13KonqPopupMenuD2Ev@ABI_5_1 4:4.6.1
 _ZN14KonqCopyToMenu11setReadOnlyEb@ABI_5_1 4:4.6.1
 _ZN14KonqCopyToMenu12addActionsToEP5QMenu@ABI_5_1 4:4.6.1
 _ZN14KonqCopyToMenu7setUrlsERKN4KUrl4ListE@ABI_5_1 4:4.6.1
 _ZN14KonqCopyToMenu8setItemsERK13KFileItemList@ABI_5_1 4:4.6.1
 _ZN14KonqCopyToMenuC1EP7QWidget@ABI_5_1 4:4.6.1
 _ZN14KonqCopyToMenuC1Ev@ABI_5_1 4:4.6.1
 _ZN14KonqCopyToMenuC2EP7QWidget@ABI_5_1 4:4.6.1
 _ZN14KonqCopyToMenuC2Ev@ABI_5_1 4:4.6.1
 _ZN14KonqCopyToMenuD1Ev@ABI_5_1 4:4.6.1
 _ZN14KonqCopyToMenuD2Ev@ABI_5_1 4:4.6.1
 _ZN14KonqOperations10emptyTrashEP7QWidget@ABI_5_1 4:4.6.1
 _ZN14KonqOperations10slotResultEP4KJob@ABI_5_1 4:4.6.1
 _ZN14KonqOperations11qt_metacallEN11QMetaObject4CallEiPPv@ABI_5_1 4:4.6.1
 _ZN14KonqOperations11qt_metacastEPKc@ABI_5_1 4:4.6.1
 _ZN14KonqOperations12editMimeTypeERK7QStringP7QWidget@ABI_5_1 4:4.6.1
 _ZN14KonqOperations12setOperationEPN3KIO3JobENS_9OperationERK4KUrl@ABI_5_1 4:4.6.1
 _ZN14KonqOperations12statFinishedERK9KFileItem@ABI_5_1 4:4.6.1
 _ZN14KonqOperations13aboutToCreateERK6QPointRK5QListIN3KIO8CopyInfoEE@ABI_5_1 4:4.6.1
 _ZN14KonqOperations13aboutToCreateERKN4KUrl4ListE@ABI_5_1 4:4.11.2
 _ZN14KonqOperations14doDropFileCopyEv@ABI_5_1 4:4.6.1
 _ZN14KonqOperations14renamingFailedERK4KUrlS2_@ABI_5_1 4:4.11.2
 _ZN14KonqOperations14slotStatResultEP4KJob@ABI_5_1 4:4.6.1
 _ZN14KonqOperations15slotCopyingDoneEPN3KIO3JobERK4KUrlS5_@ABI_5_1 4:4.11.2
 _ZN14KonqOperations16staticMetaObjectE@ABI_5_1 4:4.6.1
 _ZN14KonqOperations17_addPluginActionsER5QListIP7QActionERK4KUrlRK23KFileItemListProperties@ABI_5_1 4:4.6.1
 _ZN14KonqOperations17slotAboutToCreateEPN3KIO3JobERK5QListINS0_8CopyInfoEE@ABI_5_1 4:4.6.1
 _ZN14KonqOperations19restoreTrashedItemsERKN4KUrl4ListEP7QWidget@ABI_5_1 4:4.6.1
 _ZN14KonqOperations19slotCopyingLinkDoneEPN3KIO3JobERK4KUrlRK7QStringS5_@ABI_5_1 4:4.11.2
 _ZN14KonqOperations20_restoreTrashedItemsERKN4KUrl4ListE@ABI_5_1 4:4.6.1
 _ZN14KonqOperations21askDeleteConfirmationERKN4KUrl4ListEiNS_16ConfirmationTypeEP7QWidget@ABI_5_1 4:4.6.1
 _ZN14KonqOperations3delEP7QWidgetNS_9OperationERKN4KUrl4ListE@ABI_5_1 4:4.6.1
 _ZN14KonqOperations4_delENS_9OperationERKN4KUrl4ListENS_16ConfirmationTypeE@ABI_5_1 4:4.6.1
 _ZN14KonqOperations4copyEP7QWidgetNS_9OperationERKN4KUrl4ListERKS3_@ABI_5_1 4:4.6.1
 _ZN14KonqOperations5mkdirEP7QWidgetRK4KUrl@ABI_5_1 4:4.6.1
 _ZN14KonqOperations6doDropERK9KFileItemRK4KUrlP10QDropEventP7QWidget@ABI_5_1 4:4.6.1
 _ZN14KonqOperations6doDropERK9KFileItemRK4KUrlP10QDropEventP7QWidgetRK5QListIP7QActionE@ABI_5_1 4:4.6.1
 _ZN14KonqOperations6newDirEP7QWidgetRK4KUrl6QFlagsINS_10NewDirFlagEE@ABI_5_1 4:4.6.1
 _ZN14KonqOperations6newDirEP7QWidgetRK4KUrl@ABI_5_1 4:4.6.1
 _ZN14KonqOperations6renameEP7QWidgetRK4KUrlRK7QString@ABI_5_1 4:4.6.1
 _ZN14KonqOperations6renameEP7QWidgetRK4KUrlS4_@ABI_5_1 4:4.6.1
 _ZN14KonqOperations7doPasteEP7QWidgetRK4KUrlRK6QPoint@ABI_5_1 4:4.6.1
 _ZN14KonqOperations7statUrlERK4KUrlPK7QObjectPKcP7QWidget@ABI_5_1 4:4.6.1
 _ZN14KonqOperations8_statUrlERK4KUrlPK7QObjectPKc@ABI_5_1 4:4.6.1
 _ZN14KonqOperations8renameV2EP7QWidgetRK4KUrlRK7QString@ABI_5_1 4:4.11.2
 _ZN14KonqOperations8renameV2EP7QWidgetRK4KUrlS4_@ABI_5_1 4:4.11.2
 _ZN14KonqOperations9asyncDropERK9KFileItem@ABI_5_1 4:4.6.1
 _ZN14KonqOperations9doPasteV2EP7QWidgetRK4KUrlRK6QPoint@ABI_5_1 4:4.11.2
 _ZN14KonqOperations9pasteInfoERK4KUrl@ABI_5_1 4:4.6.1
 _ZN14KonqOperationsC1EP7QWidget@ABI_5_1 4:4.6.1
 _ZN14KonqOperationsC2EP7QWidget@ABI_5_1 4:4.6.1
 _ZN14KonqOperationsD0Ev@ABI_5_1 4:4.6.1
 _ZN14KonqOperationsD1Ev@ABI_5_1 4:4.6.1
 _ZN14KonqOperationsD2Ev@ABI_5_1 4:4.6.1
 _ZN15KonqConfigEvent17s_configEventNameE@ABI_5_1 4:4.6.1
 _ZN15KonqHistoryList11removeEntryERK4KUrl@ABI_5_1 4:4.6.1
 _ZN15KonqHistoryList9findEntryERK4KUrl@ABI_5_1 4:4.6.1
 _ZN15KonqMenuActions12addActionsToEP5QMenu@ABI_5_1 4:4.6.1
 _ZN15KonqMenuActions15setParentWidgetEP7QWidget@ABI_5_1 4:4.6.1
 _ZN15KonqMenuActions16setPopupMenuInfoERK24KonqPopupMenuInformation@ABI_5_1 4:4.6.1
 _ZN15KonqMenuActions20addOpenWithActionsToEP5QMenuRK7QString@ABI_5_1 4:4.6.1
 _ZN15KonqMenuActions21setItemListPropertiesERK23KFileItemListProperties@ABI_5_1 4:4.6.1
 _ZN15KonqMenuActions23preferredOpenWithActionERK7QString@ABI_5_1 4:4.6.1
 _ZN15KonqMenuActionsC1Ev@ABI_5_1 4:4.6.1
 _ZN15KonqMenuActionsC2Ev@ABI_5_1 4:4.6.1
 _ZN15KonqMenuActionsD1Ev@ABI_5_1 4:4.6.1
 _ZN15KonqMenuActionsD2Ev@ABI_5_1 4:4.6.1
 _ZN16KonqHistoryEntry4loadER11QDataStreamNS_5FlagsE@ABI_5_1 4:4.6.1
 _ZN16KonqHistoryEntryC1ERKS_@ABI_5_1 4:4.6.1
 _ZN16KonqHistoryEntryC1Ev@ABI_5_1 4:4.6.1
 _ZN16KonqHistoryEntryC2ERKS_@ABI_5_1 4:4.6.1
 _ZN16KonqHistoryEntryC2Ev@ABI_5_1 4:4.6.1
 _ZN16KonqHistoryEntryD1Ev@ABI_5_1 4:4.6.1
 _ZN16KonqHistoryEntryD2Ev@ABI_5_1 4:4.6.1
 _ZN17KonqHistoryLoader11loadHistoryEv@ABI_5_1 4:15.12.1
 _ZN17KonqHistoryLoader11qt_metacallEN11QMetaObject4CallEiPPv@ABI_5_1 4:15.12.1
 _ZN17KonqHistoryLoader11qt_metacastEPKc@ABI_5_1 4:15.12.1
 _ZN17KonqHistoryLoader14historyVersionEv@ABI_5_1 4:15.12.1
 _ZN17KonqHistoryLoader16staticMetaObjectE@ABI_5_1 4:15.12.1
 _ZN17KonqHistoryLoaderC1EP7QObject@ABI_5_1 4:15.12.1
 _ZN17KonqHistoryLoaderC2EP7QObject@ABI_5_1 4:15.12.1
 _ZN17KonqHistoryLoaderD0Ev@ABI_5_1 4:15.12.1
 _ZN17KonqHistoryLoaderD1Ev@ABI_5_1 4:15.12.1
 _ZN17KonqHistoryLoaderD2Ev@ABI_5_1 4:15.12.1
 _ZN18KonqCopyToMainMenu10slotBrowseEv@ABI_5_1 4:15.12.1
 _ZN18KonqCopyToMainMenu11qt_metacallEN11QMetaObject4CallEiPPv@ABI_5_1 4:15.12.1
 _ZN18KonqCopyToMainMenu11qt_metacastEPKc@ABI_5_1 4:15.12.1
 _ZN18KonqCopyToMainMenu12copyOrMoveToERK4KUrl@ABI_5_1 4:15.12.1
 _ZN18KonqCopyToMainMenu13slotTriggeredEP7QAction@ABI_5_1 4:15.12.1
 _ZN18KonqCopyToMainMenu15slotAboutToShowEv@ABI_5_1 4:15.12.1
 _ZN18KonqCopyToMainMenu16staticMetaObjectE@ABI_5_1 4:15.12.1
 _ZN18KonqCopyToMainMenuC1EP5QMenuP21KonqCopyToMenuPrivate8MenuType@ABI_5_1 4:15.12.1
 _ZN18KonqCopyToMainMenuC2EP5QMenuP21KonqCopyToMenuPrivate8MenuType@ABI_5_1 4:15.12.1
 _ZN18KonqCopyToMainMenuD0Ev@ABI_5_1 4:15.12.1
 _ZN18KonqCopyToMainMenuD1Ev@ABI_5_1 4:15.12.1
 _ZN18KonqCopyToMainMenuD2Ev@ABI_5_1 4:15.12.1
 (optional=templinst)_ZN18QAlgorithmsPrivate11qSortHelperIN5QListI16KonqHistoryEntryE8iteratorES2_PFbRKS2_S6_EEEvT_S9_RKT0_T1_@ABI_5_1 4:15.12.1
 (optional=templinst)_ZN18QSharedDataPointerI31KonqPopupMenuInformationPrivateE13detach_helperEv@ABI_5_1 4:15.12.1
 _ZN19KonqHistoryProvider10entryAddedERK16KonqHistoryEntry@ABI_5_1 4:4.6.1
 _ZN19KonqHistoryProvider11loadHistoryEv@ABI_5_1 4:4.6.1
 _ZN19KonqHistoryProvider11qt_metacallEN11QMetaObject4CallEiPPv@ABI_5_1 4:4.6.1
 _ZN19KonqHistoryProvider11qt_metacastEPKc@ABI_5_1 4:4.6.1
 _ZN19KonqHistoryProvider11removeEntryEN5QListI16KonqHistoryEntryE8iteratorE@ABI_5_1 4:4.6.1
 _ZN19KonqHistoryProvider12entryRemovedERK16KonqHistoryEntry@ABI_5_1 4:4.6.1
 _ZN19KonqHistoryProvider13emitSetMaxAgeEi@ABI_5_1 4:4.6.1
 _ZN19KonqHistoryProvider15emitSetMaxCountEi@ABI_5_1 4:4.6.1
 _ZN19KonqHistoryProvider16emitAddToHistoryERK16KonqHistoryEntry@ABI_5_1 4:4.6.1
 _ZN19KonqHistoryProvider16staticMetaObjectE@ABI_5_1 4:4.6.1
 _ZN19KonqHistoryProvider17finishAddingEntryERK16KonqHistoryEntryb@ABI_5_1 4:4.6.1
 _ZN19KonqHistoryProvider21emitRemoveFromHistoryERK4KUrl@ABI_5_1 4:4.6.1
 _ZN19KonqHistoryProvider25emitRemoveListFromHistoryERKN4KUrl4ListE@ABI_5_1 4:4.6.1
 _ZN19KonqHistoryProvider9emitClearEv@ABI_5_1 4:4.6.1
 _ZN19KonqHistoryProvider9findEntryERK4KUrl@ABI_5_1 4:4.6.1
 _ZN19KonqHistoryProviderC1EP7QObject@ABI_5_1 4:4.6.1
 _ZN19KonqHistoryProviderC2EP7QObject@ABI_5_1 4:4.6.1
 _ZN19KonqHistoryProviderD0Ev@ABI_5_1 4:4.6.1
 _ZN19KonqHistoryProviderD1Ev@ABI_5_1 4:4.6.1
 _ZN19KonqHistoryProviderD2Ev@ABI_5_1 4:4.6.1
 _ZN19KonqMultiRestoreJob10slotResultEP4KJob@ABI_5_1 4:15.12.1
 _ZN19KonqMultiRestoreJob11qt_metacallEN11QMetaObject4CallEiPPv@ABI_5_1 4:15.12.1
 _ZN19KonqMultiRestoreJob11qt_metacastEPKc@ABI_5_1 4:15.12.1
 _ZN19KonqMultiRestoreJob16staticMetaObjectE@ABI_5_1 4:15.12.1
 _ZN19KonqMultiRestoreJob9slotStartEv@ABI_5_1 4:15.12.1
 _ZN19KonqMultiRestoreJobC1ERKN4KUrl4ListE@ABI_5_1 4:15.12.1
 _ZN19KonqMultiRestoreJobC2ERKN4KUrl4ListE@ABI_5_1 4:15.12.1
 _ZN19KonqMultiRestoreJobD0Ev@ABI_5_1 4:15.12.1
 _ZN19KonqMultiRestoreJobD1Ev@ABI_5_1 4:15.12.1
 _ZN19KonqMultiRestoreJobD2Ev@ABI_5_1 4:15.12.1
 _ZN19KonqPopupMenuPlugin11qt_metacallEN11QMetaObject4CallEiPPv@ABI_5_1 4:4.6.1
 _ZN19KonqPopupMenuPlugin11qt_metacastEPKc@ABI_5_1 4:4.6.1
 _ZN19KonqPopupMenuPlugin16staticMetaObjectE@ABI_5_1 4:4.6.1
 _ZN19KonqPopupMenuPluginC1EP7QObject@ABI_5_1 4:4.6.1
 _ZN19KonqPopupMenuPluginC2EP7QObject@ABI_5_1 4:4.6.1
 _ZN19KonqPopupMenuPluginD0Ev@ABI_5_1 4:4.6.1
 _ZN19KonqPopupMenuPluginD1Ev@ABI_5_1 4:4.6.1
 _ZN19KonqPopupMenuPluginD2Ev@ABI_5_1 4:4.6.1
 _ZN20KonqPopupMenuPrivate10addPluginsEv@ABI_5_1 4:15.12.1
 _ZN20KonqPopupMenuPrivate14addNamedActionERK7QString@ABI_5_1 4:15.12.1
 _ZN20KonqPopupMenuPrivate15slotPopupNewDirEv@ABI_5_1 4:15.12.1
 _ZN20KonqPopupMenuPrivate16slotPopupNewViewEv@ABI_5_1 4:15.12.1
 _ZN20KonqPopupMenuPrivate17slotPopupMimeTypeEv@ABI_5_1 4:15.12.1
 _ZN20KonqPopupMenuPrivate18slotConfigTrashBinEv@ABI_5_1 4:15.12.1
 _ZN20KonqPopupMenuPrivate19slotPopupPropertiesEv@ABI_5_1 4:15.12.1
 _ZN20KonqPopupMenuPrivate20slotShowOriginalFileEv@ABI_5_1 4:15.12.1
 _ZN20KonqPopupMenuPrivate22slotPopupAddToBookmarkEv@ABI_5_1 4:15.12.1
 _ZN20KonqPopupMenuPrivate22slotPopupEmptyTrashBinEv@ABI_5_1 4:15.12.1
 _ZN20KonqPopupMenuPrivate23slotOpenShareFileDialogEv@ABI_5_1 4:15.12.1
 _ZN20KonqPopupMenuPrivate28slotPopupRestoreTrashedItemsEv@ABI_5_1 4:15.12.1
 _ZN20KonqPopupMenuPrivate4initEj6QFlagsIN6KParts16BrowserExtension9PopupFlagEE@ABI_5_1 4:15.12.1
 _ZN20KonqPopupMenuPrivate8addGroupERK7QString@ABI_5_1 4:15.12.1
 _ZN21KVersionControlPlugin11infoMessageERK7QString@ABI_5_1 4:4.6.1
 _ZN21KVersionControlPlugin11qt_metacallEN11QMetaObject4CallEiPPv@ABI_5_1 4:4.6.1
 _ZN21KVersionControlPlugin11qt_metacastEPKc@ABI_5_1 4:4.6.1
 _ZN21KVersionControlPlugin12errorMessageERK7QString@ABI_5_1 4:4.6.1
 _ZN21KVersionControlPlugin16staticMetaObjectE@ABI_5_1 4:4.6.1
 _ZN21KVersionControlPlugin20versionStatesChangedEv@ABI_5_1 4:4.6.1
 _ZN21KVersionControlPlugin25operationCompletedMessageERK7QString@ABI_5_1 4:4.6.1
 _ZN21KVersionControlPluginC1EP7QObject@ABI_5_1 4:4.6.1
 _ZN21KVersionControlPluginC2EP7QObject@ABI_5_1 4:4.6.1
 _ZN21KVersionControlPluginD0Ev@ABI_5_1 4:4.6.1
 _ZN21KVersionControlPluginD1Ev@ABI_5_1 4:4.6.1
 _ZN21KVersionControlPluginD2Ev@ABI_5_1 4:4.6.1
 _ZN21KonqCopyToMenuPrivateC1EP7QWidget@ABI_5_1 4:15.12.1
 _ZN21KonqCopyToMenuPrivateC2EP7QWidget@ABI_5_1 4:15.12.1
 _ZN22KVersionControlPlugin211infoMessageERK7QString@ABI_5_1 4:4.8.1
 _ZN22KVersionControlPlugin211qt_metacallEN11QMetaObject4CallEiPPv@ABI_5_1 4:4.8.1
 _ZN22KVersionControlPlugin211qt_metacastEPKc@ABI_5_1 4:4.8.1
 _ZN22KVersionControlPlugin212errorMessageERK7QString@ABI_5_1 4:4.8.1
 _ZN22KVersionControlPlugin212versionStateERK9KFileItem@ABI_5_1 4:4.8.1
 _ZN22KVersionControlPlugin216staticMetaObjectE@ABI_5_1 4:4.8.1
 _ZN22KVersionControlPlugin218contextMenuActionsERK13KFileItemList@ABI_5_1 4:4.8.1
 _ZN22KVersionControlPlugin218contextMenuActionsERK7QString@ABI_5_1 4:4.8.1
 _ZN22KVersionControlPlugin219itemVersionsChangedEv@ABI_5_1 4:4.8.1
 _ZN22KVersionControlPlugin225operationCompletedMessageERK7QString@ABI_5_1 4:4.8.1
 _ZN22KVersionControlPlugin2C1EP7QObject@ABI_5_1 4:4.8.1
 _ZN22KVersionControlPlugin2C2EP7QObject@ABI_5_1 4:4.8.1
 _ZN22KVersionControlPlugin2D0Ev@ABI_5_1 4:4.8.1
 _ZN22KVersionControlPlugin2D1Ev@ABI_5_1 4:4.8.1
 _ZN22KVersionControlPlugin2D2Ev@ABI_5_1 4:4.8.1
 _ZN22KonqDndPopupMenuPlugin11qt_metacallEN11QMetaObject4CallEiPPv@ABI_5_1 4:4.6.1
 _ZN22KonqDndPopupMenuPlugin11qt_metacastEPKc@ABI_5_1 4:4.6.1
 _ZN22KonqDndPopupMenuPlugin16staticMetaObjectE@ABI_5_1 4:4.6.1
 _ZN22KonqDndPopupMenuPluginC1EP7QObject@ABI_5_1 4:4.6.1
 _ZN22KonqDndPopupMenuPluginC2EP7QObject@ABI_5_1 4:4.6.1
 _ZN22KonqDndPopupMenuPluginD0Ev@ABI_5_1 4:4.6.1
 _ZN22KonqDndPopupMenuPluginD1Ev@ABI_5_1 4:4.6.1
 _ZN22KonqDndPopupMenuPluginD2Ev@ABI_5_1 4:4.6.1
 _ZN22KonqFileMouseOverEvent28s_fileItemMouseOverEventNameE@ABI_5_1 4:4.6.1
 _ZN22KonqFileSelectionEvent28s_fileItemSelectionEventNameE@ABI_5_1 4:4.6.1
 _ZN23KonqCopyToDirectoryMenu11qt_metacallEN11QMetaObject4CallEiPPv@ABI_5_1 4:15.12.1
 _ZN23KonqCopyToDirectoryMenu11qt_metacastEPKc@ABI_5_1 4:15.12.1
 _ZN23KonqCopyToDirectoryMenu15slotAboutToShowEv@ABI_5_1 4:15.12.1
 _ZN23KonqCopyToDirectoryMenu16staticMetaObjectE@ABI_5_1 4:15.12.1
 _ZN23KonqCopyToDirectoryMenuC1EP5QMenuP18KonqCopyToMainMenuRK7QString@ABI_5_1 4:15.12.1
 _ZN23KonqCopyToDirectoryMenuC2EP5QMenuP18KonqCopyToMainMenuRK7QString@ABI_5_1 4:15.12.1
 _ZN23KonqCopyToDirectoryMenuD0Ev@ABI_5_1 4:15.12.1
 _ZN23KonqCopyToDirectoryMenuD1Ev@ABI_5_1 4:15.12.1
 _ZN23KonqCopyToDirectoryMenuD2Ev@ABI_5_1 4:15.12.1
 _ZN24KonqFileItemCapabilities8setItemsERK13KFileItemList@ABI_5_1 4:4.6.1
 _ZN24KonqFileItemCapabilitiesC1ERK13KFileItemList@ABI_5_1 4:4.6.1
 _ZN24KonqFileItemCapabilitiesC1ERKS_@ABI_5_1 4:4.6.1
 _ZN24KonqFileItemCapabilitiesC1Ev@ABI_5_1 4:4.6.1
 _ZN24KonqFileItemCapabilitiesC2ERK13KFileItemList@ABI_5_1 4:4.6.1
 _ZN24KonqFileItemCapabilitiesC2ERKS_@ABI_5_1 4:4.6.1
 _ZN24KonqFileItemCapabilitiesC2Ev@ABI_5_1 4:4.6.1
 _ZN24KonqFileItemCapabilitiesD0Ev@ABI_5_1 4:4.6.1
 _ZN24KonqFileItemCapabilitiesD1Ev@ABI_5_1 4:4.6.1
 _ZN24KonqFileItemCapabilitiesD2Ev@ABI_5_1 4:4.6.1
 _ZN24KonqFileItemCapabilitiesaSERKS_@ABI_5_1 4:4.6.1
 _ZN24KonqPopupMenuInformation15setParentWidgetEP7QWidget@ABI_5_1 4:4.6.1
 _ZN24KonqPopupMenuInformation21setItemListPropertiesERK23KFileItemListProperties@ABI_5_1 4:4.6.1
 _ZN24KonqPopupMenuInformation8setItemsERK13KFileItemList@ABI_5_1 4:4.6.1
 _ZN24KonqPopupMenuInformationC1ERKS_@ABI_5_1 4:4.6.1
 _ZN24KonqPopupMenuInformationC1Ev@ABI_5_1 4:4.6.1
 _ZN24KonqPopupMenuInformationC2ERKS_@ABI_5_1 4:4.6.1
 _ZN24KonqPopupMenuInformationC2Ev@ABI_5_1 4:4.6.1
 _ZN24KonqPopupMenuInformationD1Ev@ABI_5_1 4:4.6.1
 _ZN24KonqPopupMenuInformationD2Ev@ABI_5_1 4:4.6.1
 _ZN24KonqPopupMenuInformationaSERKS_@ABI_5_1 4:4.6.1
 _ZN25KonqNameAndUrlInputDialog11qt_metacallEN11QMetaObject4CallEiPPv@ABI_5_1 4:4.6.1
 _ZN25KonqNameAndUrlInputDialog11qt_metacastEPKc@ABI_5_1 4:4.6.1
 _ZN25KonqNameAndUrlInputDialog15setSuggestedUrlERK4KUrl@ABI_5_1 4:4.6.1
 _ZN25KonqNameAndUrlInputDialog16setSuggestedNameERK7QString@ABI_5_1 4:4.6.1
 _ZN25KonqNameAndUrlInputDialog16staticMetaObjectE@ABI_5_1 4:4.6.1
 _ZN25KonqNameAndUrlInputDialogC1ERK7QStringS2_RK4KUrlP7QWidget@ABI_5_1 4:4.6.1
 _ZN25KonqNameAndUrlInputDialogC2ERK7QStringS2_RK4KUrlP7QWidget@ABI_5_1 4:4.6.1
 _ZN25KonqNameAndUrlInputDialogD0Ev@ABI_5_1 4:4.6.1
 _ZN25KonqNameAndUrlInputDialogD1Ev@ABI_5_1 4:4.6.1
 _ZN25KonqNameAndUrlInputDialogD2Ev@ABI_5_1 4:4.6.1
 _ZN25KonqStatusBarMessageLabel10paintEventEP11QPaintEvent@ABI_5_1 4:4.6.1
 _ZN25KonqStatusBarMessageLabel10setMessageERK7QStringNS_4TypeE@ABI_5_1 4:4.6.1
 _ZN25KonqStatusBarMessageLabel11qt_metacallEN11QMetaObject4CallEiPPv@ABI_5_1 4:4.6.1
 _ZN25KonqStatusBarMessageLabel11qt_metacastEPKc@ABI_5_1 4:4.6.1
 _ZN25KonqStatusBarMessageLabel11resizeEventEP12QResizeEvent@ABI_5_1 4:4.6.1
 _ZN25KonqStatusBarMessageLabel14setDefaultTextERK7QString@ABI_5_1 4:4.6.1
 _ZN25KonqStatusBarMessageLabel16staticMetaObjectE@ABI_5_1 4:4.6.1
 _ZN25KonqStatusBarMessageLabel17assureVisibleTextEv@ABI_5_1 4:4.6.1
 _ZN25KonqStatusBarMessageLabel17closeErrorMessageEv@ABI_5_1 4:4.6.1
 _ZN25KonqStatusBarMessageLabel18showPendingMessageEv@ABI_5_1 4:4.6.1
 _ZN25KonqStatusBarMessageLabel20setMinimumTextHeightEi@ABI_5_1 4:4.6.1
 _ZN25KonqStatusBarMessageLabel25updateCloseButtonPositionEv@ABI_5_1 4:4.6.1
 _ZN25KonqStatusBarMessageLabel5resetEv@ABI_5_1 4:4.6.1
 _ZN25KonqStatusBarMessageLabel9timerDoneEv@ABI_5_1 4:4.6.1
 _ZN25KonqStatusBarMessageLabelC1EP7QWidget@ABI_5_1 4:4.6.1
 _ZN25KonqStatusBarMessageLabelC2EP7QWidget@ABI_5_1 4:4.6.1
 _ZN25KonqStatusBarMessageLabelD0Ev@ABI_5_1 4:4.6.1
 _ZN25KonqStatusBarMessageLabelD1Ev@ABI_5_1 4:4.6.1
 _ZN25KonqStatusBarMessageLabelD2Ev@ABI_5_1 4:4.6.1
 _ZN26KonqHistoryProviderPrivate10adjustSizeEv@ABI_5_1 4:15.12.1
 _ZN26KonqHistoryProviderPrivate11notifyClearEv@ABI_5_1 4:15.12.1
 _ZN26KonqHistoryProviderPrivate11qt_metacallEN11QMetaObject4CallEiPPv@ABI_5_1 4:15.12.1
 _ZN26KonqHistoryProviderPrivate11qt_metacastEPKc@ABI_5_1 4:15.12.1
 _ZN26KonqHistoryProviderPrivate11saveHistoryEv@ABI_5_1 4:15.12.1
 _ZN26KonqHistoryProviderPrivate12notifyMaxAgeEi@ABI_5_1 4:15.12.1
 _ZN26KonqHistoryProviderPrivate12notifyRemoveERK7QString@ABI_5_1 4:15.12.1
 _ZN26KonqHistoryProviderPrivate14notifyMaxCountEi@ABI_5_1 4:15.12.1
 _ZN26KonqHistoryProviderPrivate15slotNotifyClearEv@ABI_5_1 4:15.12.1
 _ZN26KonqHistoryProviderPrivate16notifyRemoveListERK11QStringList@ABI_5_1 4:15.12.1
 _ZN26KonqHistoryProviderPrivate16slotNotifyMaxAgeEi@ABI_5_1 4:15.12.1
 _ZN26KonqHistoryProviderPrivate16slotNotifyRemoveERK7QString@ABI_5_1 4:15.12.1
 _ZN26KonqHistoryProviderPrivate16staticMetaObjectE@ABI_5_1 4:15.12.1
 _ZN26KonqHistoryProviderPrivate18notifyHistoryEntryERK10QByteArray@ABI_5_1 4:15.12.1
 _ZN26KonqHistoryProviderPrivate18slotNotifyMaxCountEi@ABI_5_1 4:15.12.1
 _ZN26KonqHistoryProviderPrivate20slotNotifyRemoveListERK11QStringList@ABI_5_1 4:15.12.1
 _ZN26KonqHistoryProviderPrivate22slotNotifyHistoryEntryERK10QByteArray@ABI_5_1 4:15.12.1
 _ZN26KonqHistoryProviderPrivateC1EP19KonqHistoryProvider@ABI_5_1 4:15.12.1
 _ZN26KonqHistoryProviderPrivateC2EP19KonqHistoryProvider@ABI_5_1 4:15.12.1
 _ZN26KonqHistoryProviderPrivateD0Ev@ABI_5_1 4:15.12.1
 _ZN26KonqHistoryProviderPrivateD1Ev@ABI_5_1 4:15.12.1
 _ZN26KonqHistoryProviderPrivateD2Ev@ABI_5_1 4:15.12.1
 _ZN31KonqFileItemCapabilitiesPrivateD0Ev@ABI_5_1 4:15.12.1
 _ZN31KonqFileItemCapabilitiesPrivateD1Ev@ABI_5_1 4:15.12.1
 _ZN31KonqFileItemCapabilitiesPrivateD2Ev@ABI_5_1 4:15.12.1
 _ZN31KonqPopupMenuInformationPrivateD0Ev@ABI_5_1 4:15.12.1
 _ZN31KonqPopupMenuInformationPrivateD1Ev@ABI_5_1 4:15.12.1
 _ZN31KonqPopupMenuInformationPrivateD2Ev@ABI_5_1 4:15.12.1
 _ZN32KonqNameAndUrlInputDialogPrivate12_k_slotClearEv@ABI_5_1 4:15.12.1
 _ZN32KonqNameAndUrlInputDialogPrivate21_k_slotURLTextChangedERK7QString@ABI_5_1 4:15.12.1
 _ZN32KonqNameAndUrlInputDialogPrivate22_k_slotNameTextChangedERK7QString@ABI_5_1 4:15.12.1
 _ZN3KIO3Job5startEv@ABI_5_1 4:15.12.1
 (optional=templinst)_ZN4QMapI7QString5QListIP7QActionEE13detach_helperEv@ABI_5_1 4:15.12.1
 (optional=templinst)_ZN4QMapI7QStringS0_E13detach_helperEv@ABI_5_1 4:15.12.1
 (optional=templinst|arch=!x32)_ZN5QListI10KSharedPtrI11KMountPointEED1Ev@ABI_5_1 4:15.12.1
 (optional=templinst|arch=!x32)_ZN5QListI10KSharedPtrI11KMountPointEED2Ev@ABI_5_1 4:15.12.1
 (optional=templinst)_ZN5QListI10KSharedPtrI8KServiceEE13detach_helperEi@ABI_5_1 4:15.12.1
 (optional=templinst|arch=!x32)_ZN5QListI10KSharedPtrI8KServiceEED1Ev@ABI_5_1 4:15.12.1
 (optional=templinst|arch=!x32)_ZN5QListI10KSharedPtrI8KServiceEED2Ev@ABI_5_1 4:15.12.1
 (optional=templinst)_ZN5QListI16KonqHistoryEntryE13detach_helperEi@ABI_5_1 4:15.12.1
 (optional=templinst)_ZN5QListI16KonqHistoryEntryE18detach_helper_growEii@ABI_5_1 4:15.12.1
 (optional=templinst|arch=x32)_ZN5QListI16KonqHistoryEntryE5clearEv@ABI_5_1 4:15.12.1
 (optional=templinst|arch=!x32)_ZN5QListI16KonqHistoryEntryED1Ev@ABI_5_1 4:15.12.1
 (optional=templinst|arch=!x32)_ZN5QListI16KonqHistoryEntryED2Ev@ABI_5_1 4:15.12.1
 (optional=templinst)_ZN5QListI4KUrlE13detach_helperEi@ABI_5_1 4:15.12.1
 (optional=templinst)_ZN5QListI4KUrlE18detach_helper_growEii@ABI_5_1 4:15.12.1
 (optional=templinst)_ZN5QListI4KUrlE6appendERKS0_@ABI_5_1 4:15.12.1
 (optional=templinst|arch=!x32)_ZN5QListI4KUrlED1Ev@ABI_5_1 4:15.12.1
 (optional=templinst|arch=!x32)_ZN5QListI4KUrlED2Ev@ABI_5_1 4:15.12.1
 (optional=templinst)_ZN5QListI7QStringE13detach_helperEi@ABI_5_1 4:15.12.1
 (optional=templinst)_ZN5QListI7QStringE18detach_helper_growEii@ABI_5_1 4:15.12.1
 (optional=templinst|arch=!x32)_ZN5QListI7QStringED1Ev@ABI_5_1 4:15.12.1
 (optional=templinst|arch=!x32)_ZN5QListI7QStringED2Ev@ABI_5_1 4:15.12.1
 (optional=templinst|arch=!x32)_ZN5QListI8QVariantED1Ev@ABI_5_1 4:15.12.1
 (optional=templinst|arch=!x32)_ZN5QListI8QVariantED2Ev@ABI_5_1 4:15.12.1
 (optional=templinst|arch=!x32)_ZN5QListI9KFileItemE13detach_helperEi@ABI_5_1 4:15.12.1
 (optional=templinst)_ZN5QListI9KFileItemE18detach_helper_growEii@ABI_5_1 4:15.12.1
 (optional=templinst)_ZN5QListI9KFileItemE6appendERKS0_@ABI_5_1 4:15.12.1
 (optional=templinst|arch=!x32)_ZN5QListI9KFileItemED1Ev@ABI_5_1 4:15.12.1
 (optional=templinst|arch=!x32)_ZN5QListI9KFileItemED2Ev@ABI_5_1 4:15.12.1
 (optional=templinst)_ZN5QListIP7KActionE18detach_helper_growEii@ABI_5_1 4:15.12.1
 (optional=templinst)_ZN5QListIP7KActionE6appendERKS1_@ABI_5_1 4:15.12.1
 (optional=templinst)_ZN5QListIP7QActionE13detach_helperEi@ABI_5_1 4:15.12.1
 (optional=templinst|arch=!x32)_ZN5QListIP7QActionED1Ev@ABI_5_1 4:15.12.1
 (optional=templinst|arch=!x32)_ZN5QListIP7QActionED2Ev@ABI_5_1 4:15.12.1
 _ZN8KNewMenu11qt_metacallEN11QMetaObject4CallEiPPv@ABI_5_1 4:4.6.1
 _ZN8KNewMenu11qt_metacastEPKc@ABI_5_1 4:4.6.1
 _ZN8KNewMenu16staticMetaObjectE@ABI_5_1 4:4.6.1
 _ZN8KNewMenuC1EP17KActionCollectionP7QWidgetRK7QString@ABI_5_1 4:4.6.1
 _ZN8KNewMenuC2EP17KActionCollectionP7QWidgetRK7QString@ABI_5_1 4:4.6.1
 _ZN8KNewMenuD0Ev@ABI_5_1 4:15.12.1
 _ZN8KNewMenuD1Ev@ABI_5_1 4:15.12.1
 _ZN8KNewMenuD2Ev@ABI_5_1 4:15.12.1
 _ZNK13KonqPopupMenu10metaObjectEv@ABI_5_1 4:4.6.1
 _ZNK13KonqPopupMenu15fileItemActionsEv@ABI_5_1 4:4.8.2
 _ZNK14KonqOperations10metaObjectEv@ABI_5_1 4:4.6.1
 _ZNK14KonqOperations11droppedUrlsEv@ABI_5_1 4:4.6.1
 _ZNK14KonqOperations12dropPositionEv@ABI_5_1 4:4.6.1
 _ZNK14KonqOperations12parentWidgetEv@ABI_5_1 4:4.6.1
 _ZNK15KonqHistoryList14constFindEntryERK4KUrl@ABI_5_1 4:4.6.1
 _ZNK16KonqHistoryEntry4saveER11QDataStreamNS_5FlagsE@ABI_5_1 4:4.6.1
 _ZNK16KonqHistoryEntryeqERKS_@ABI_5_1 4:4.6.1
 _ZNK17KonqHistoryLoader10metaObjectEv@ABI_5_1 4:15.12.1
 _ZNK17KonqHistoryLoader7entriesEv@ABI_5_1 4:15.12.1
 _ZNK18KonqCopyToMainMenu10metaObjectEv@ABI_5_1 4:15.12.1
 _ZNK19KonqHistoryProvider10metaObjectEv@ABI_5_1 4:4.6.1
 _ZNK19KonqHistoryProvider14constFindEntryERK4KUrl@ABI_5_1 4:4.6.1
 _ZNK19KonqHistoryProvider6maxAgeEv@ABI_5_1 4:4.6.1
 _ZNK19KonqHistoryProvider7entriesEv@ABI_5_1 4:4.6.1
 _ZNK19KonqHistoryProvider8maxCountEv@ABI_5_1 4:4.6.1
 _ZNK19KonqMultiRestoreJob10metaObjectEv@ABI_5_1 4:15.12.1
 _ZNK19KonqPopupMenuPlugin10metaObjectEv@ABI_5_1 4:4.6.1
 _ZNK21KVersionControlPlugin10metaObjectEv@ABI_5_1 4:4.6.1
 _ZNK22KVersionControlPlugin210metaObjectEv@ABI_5_1 4:4.8.1
 _ZNK22KonqDndPopupMenuPlugin10metaObjectEv@ABI_5_1 4:4.6.1
 _ZNK23KonqCopyToDirectoryMenu10metaObjectEv@ABI_5_1 4:15.12.1
 _ZNK24KonqFileItemCapabilities14supportsMovingEv@ABI_5_1 4:4.6.1
 _ZNK24KonqFileItemCapabilities15supportsReadingEv@ABI_5_1 4:4.6.1
 _ZNK24KonqFileItemCapabilities15supportsWritingEv@ABI_5_1 4:4.6.1
 _ZNK24KonqFileItemCapabilities16supportsDeletingEv@ABI_5_1 4:4.6.1
 _ZNK24KonqFileItemCapabilities7isLocalEv@ABI_5_1 4:4.6.1
 _ZNK24KonqPopupMenuInformation11isDirectoryEv@ABI_5_1 4:4.6.1
 _ZNK24KonqPopupMenuInformation12capabilitiesEv@ABI_5_1 4:4.6.1
 _ZNK24KonqPopupMenuInformation12parentWidgetEv@ABI_5_1 4:4.6.1
 _ZNK24KonqPopupMenuInformation18itemListPropertiesEv@ABI_5_1 4:4.6.1
 _ZNK24KonqPopupMenuInformation5itemsEv@ABI_5_1 4:4.6.1
 _ZNK24KonqPopupMenuInformation7urlListEv@ABI_5_1 4:4.6.1
 _ZNK24KonqPopupMenuInformation8mimeTypeEv@ABI_5_1 4:4.6.1
 _ZNK24KonqPopupMenuInformation9mimeGroupEv@ABI_5_1 4:4.6.1
 _ZNK25KonqNameAndUrlInputDialog10metaObjectEv@ABI_5_1 4:4.6.1
 _ZNK25KonqNameAndUrlInputDialog3urlEv@ABI_5_1 4:4.6.1
 _ZNK25KonqNameAndUrlInputDialog4nameEv@ABI_5_1 4:4.6.1
 _ZNK25KonqStatusBarMessageLabel10metaObjectEv@ABI_5_1 4:4.6.1
 _ZNK25KonqStatusBarMessageLabel11defaultTextEv@ABI_5_1 4:4.6.1
 _ZNK25KonqStatusBarMessageLabel15minimumSizeHintEv@ABI_5_1 4:4.6.1
 _ZNK25KonqStatusBarMessageLabel17minimumTextHeightEv@ABI_5_1 4:4.6.1
 _ZNK25KonqStatusBarMessageLabel18availableTextWidthEv@ABI_5_1 4:4.6.1
 _ZNK25KonqStatusBarMessageLabel4textEv@ABI_5_1 4:4.6.1
 _ZNK25KonqStatusBarMessageLabel4typeEv@ABI_5_1 4:4.6.1
 _ZNK25KonqStatusBarMessageLabel8sizeHintEv@ABI_5_1 4:4.6.1
 _ZNK26KonqHistoryProviderPrivate10metaObjectEv@ABI_5_1 4:15.12.1
 _ZNK8KNewMenu10metaObjectEv@ABI_5_1 4:4.6.1
 _ZTI11QSharedData@ABI_5_1 4:15.12.1
 _ZTI12QDBusContext@ABI_5_1 4:15.12.1
 _ZTI13KonqPopupMenu@ABI_5_1 4:4.6.1
 _ZTI14KonqOperations@ABI_5_1 4:4.6.1
 _ZTI17KonqHistoryLoader@ABI_5_1 4:15.12.1
 _ZTI18KonqCopyToMainMenu@ABI_5_1 4:15.12.1
 _ZTI19KonqHistoryProvider@ABI_5_1 4:4.6.1
 _ZTI19KonqMultiRestoreJob@ABI_5_1 4:15.12.1
 _ZTI19KonqPopupMenuPlugin@ABI_5_1 4:4.6.1
 _ZTI21KVersionControlPlugin@ABI_5_1 4:4.6.1
 _ZTI22KVersionControlPlugin2@ABI_5_1 4:4.8.1
 _ZTI22KonqDndPopupMenuPlugin@ABI_5_1 4:4.6.1
 _ZTI23KonqCopyToDirectoryMenu@ABI_5_1 4:15.12.1
 _ZTI24KonqFileItemCapabilities@ABI_5_1 4:4.6.1
 _ZTI25KonqNameAndUrlInputDialog@ABI_5_1 4:4.6.1
 _ZTI25KonqStatusBarMessageLabel@ABI_5_1 4:4.6.1
 _ZTI26KonqHistoryProviderPrivate@ABI_5_1 4:15.12.1
 _ZTI31KonqFileItemCapabilitiesPrivate@ABI_5_1 4:15.12.1
 _ZTI31KonqPopupMenuInformationPrivate@ABI_5_1 4:15.12.1
 _ZTI8KNewMenu@ABI_5_1 4:4.6.1
 _ZTS11QSharedData@ABI_5_1 4:15.12.1
 _ZTS12QDBusContext@ABI_5_1 4:15.12.1
 _ZTS13KonqPopupMenu@ABI_5_1 4:4.6.1
 _ZTS14KonqOperations@ABI_5_1 4:4.6.1
 _ZTS17KonqHistoryLoader@ABI_5_1 4:15.12.1
 _ZTS18KonqCopyToMainMenu@ABI_5_1 4:15.12.1
 _ZTS19KonqHistoryProvider@ABI_5_1 4:4.6.1
 _ZTS19KonqMultiRestoreJob@ABI_5_1 4:15.12.1
 _ZTS19KonqPopupMenuPlugin@ABI_5_1 4:4.6.1
 _ZTS21KVersionControlPlugin@ABI_5_1 4:4.6.1
 _ZTS22KVersionControlPlugin2@ABI_5_1 4:4.8.1
 _ZTS22KonqDndPopupMenuPlugin@ABI_5_1 4:4.6.1
 _ZTS23KonqCopyToDirectoryMenu@ABI_5_1 4:15.12.1
 _ZTS24KonqFileItemCapabilities@ABI_5_1 4:4.6.1
 _ZTS25KonqNameAndUrlInputDialog@ABI_5_1 4:4.6.1
 _ZTS25KonqStatusBarMessageLabel@ABI_5_1 4:4.6.1
 _ZTS26KonqHistoryProviderPrivate@ABI_5_1 4:15.12.1
 _ZTS31KonqFileItemCapabilitiesPrivate@ABI_5_1 4:15.12.1
 _ZTS31KonqPopupMenuInformationPrivate@ABI_5_1 4:15.12.1
 _ZTS8KNewMenu@ABI_5_1 4:4.6.1
 _ZTV13KonqPopupMenu@ABI_5_1 4:4.6.1
 _ZTV14KonqOperations@ABI_5_1 4:4.6.1
 _ZTV17KonqHistoryLoader@ABI_5_1 4:15.12.1
 _ZTV18KonqCopyToMainMenu@ABI_5_1 4:15.12.1
 _ZTV19KonqHistoryProvider@ABI_5_1 4:4.6.1
 _ZTV19KonqMultiRestoreJob@ABI_5_1 4:15.12.1
 _ZTV19KonqPopupMenuPlugin@ABI_5_1 4:4.6.1
 _ZTV21KVersionControlPlugin@ABI_5_1 4:4.6.1
 _ZTV22KVersionControlPlugin2@ABI_5_1 4:4.8.1
 _ZTV22KonqDndPopupMenuPlugin@ABI_5_1 4:4.6.1
 _ZTV23KonqCopyToDirectoryMenu@ABI_5_1 4:15.12.1
 _ZTV24KonqFileItemCapabilities@ABI_5_1 4:4.6.1
 _ZTV25KonqNameAndUrlInputDialog@ABI_5_1 4:4.6.1
 _ZTV25KonqStatusBarMessageLabel@ABI_5_1 4:4.6.1
 _ZTV26KonqHistoryProviderPrivate@ABI_5_1 4:15.12.1
 _ZTV31KonqFileItemCapabilitiesPrivate@ABI_5_1 4:15.12.1
 _ZTV31KonqPopupMenuInformationPrivate@ABI_5_1 4:15.12.1
 _ZTV8KNewMenu@ABI_5_1 4:4.6.1
 (optional=templinst)_ZZN11QMetaTypeIdI4KUrlE14qt_metatype_idEvE11metatype_id@ABI_5_1 4:15.12.1
 (optional=templinst)_ZZN11QMetaTypeIdI9KFileItemE14qt_metatype_idEvE11metatype_id@ABI_5_1 4:15.12.1
 dlrestrictions_data@ABI_5_1 4:4.6.3
 (c++)"non-virtual thunk to KonqCopyToDirectoryMenu::~KonqCopyToDirectoryMenu()@ABI_5_1" 4:15.12.1
 (c++)"non-virtual thunk to KonqCopyToMainMenu::~KonqCopyToMainMenu()@ABI_5_1" 4:15.12.1
 (c++)"non-virtual thunk to KonqNameAndUrlInputDialog::~KonqNameAndUrlInputDialog()@ABI_5_1" 4:4.6.1
 (c++)"non-virtual thunk to KonqPopupMenu::~KonqPopupMenu()@ABI_5_1" 4:4.6.1
 (c++)"non-virtual thunk to KonqStatusBarMessageLabel::~KonqStatusBarMessageLabel()@ABI_5_1" 4:4.6.1
