# SymbolsHelper-Confirmed: 4:4.4.1 amd64 i386
libkonqsidebarplugin.so.4 libkonqsidebarplugin4a #MINVER#
 _ZN17KonqSidebarModule10enableCopyEb@Base 4:4.4.1
 _ZN17KonqSidebarModule10setCaptionERK7QString@Base 4:4.4.1
 _ZN17KonqSidebarModule11configGroupEv@Base 4:4.4.1
 _ZN17KonqSidebarModule11enablePasteEb@Base 4:4.4.1
 _ZN17KonqSidebarModule11openPreviewERK13KFileItemList@Base 4:4.4.1
 _ZN17KonqSidebarModule11qt_metacallEN11QMetaObject4CallEiPPv@Base 4:4.4.1
 _ZN17KonqSidebarModule11qt_metacastEPKc@Base 4:4.4.1
 _ZN17KonqSidebarModule12enableActionEPS_PKcb@Base 4:4.4.1
 _ZN17KonqSidebarModule13handlePreviewERK13KFileItemList@Base 4:4.4.1
 _ZN17KonqSidebarModule13showPopupMenuERK6QPointRK13KFileItemListRKN6KParts16OpenUrlArgumentsERKNS6_16BrowserArgumentsE6QFlagsINS6_16BrowserExtension9PopupFlagEERK4QMapI7QString5QListIP7QActionEE@Base 4:4.4.1
 _ZN17KonqSidebarModule14openUrlRequestERK4KUrlRKN6KParts16OpenUrlArgumentsERKNS3_16BrowserArgumentsE@Base 4:4.4.1
 _ZN17KonqSidebarModule15createNewWindowERK4KUrlRKN6KParts16OpenUrlArgumentsERKNS3_16BrowserArgumentsERKNS3_10WindowArgsE@Base 4:4.4.1
 _ZN17KonqSidebarModule16staticMetaObjectE@Base 4:4.4.1
 _ZN17KonqSidebarModule17submitFormRequestEPKcRK7QStringRK10QByteArrayS4_S4_S4_@Base 4:4.4.1
 _ZN17KonqSidebarModule22openPreviewOnMouseOverERK9KFileItem@Base 4:4.4.1
 _ZN17KonqSidebarModule24handlePreviewOnMouseOverERK9KFileItem@Base 4:4.4.1
 _ZN17KonqSidebarModule7openUrlERK4KUrl@Base 4:4.4.1
 _ZN17KonqSidebarModule7setIconERK7QString@Base 4:4.4.1
 _ZN17KonqSidebarModule7startedEPN3KIO3JobE@Base 4:4.4.1
 _ZN17KonqSidebarModule9completedEv@Base 4:4.4.1
 _ZN17KonqSidebarModule9enableCutEb@Base 4:4.4.1
 _ZN17KonqSidebarModule9popupMenuEPS_RK6QPointRK13KFileItemListRKN6KParts16OpenUrlArgumentsERKNS7_16BrowserArgumentsE6QFlagsINS7_16BrowserExtension9PopupFlagEERK4QMapI7QString5QListIP7QActionEE@Base 4:4.4.1
 _ZN17KonqSidebarModuleC1ERK14KComponentDataP7QObjectRK12KConfigGroup@Base 4:4.4.1
 _ZN17KonqSidebarModuleC2ERK14KComponentDataP7QObjectRK12KConfigGroup@Base 4:4.4.1
 _ZN17KonqSidebarModuleD0Ev@Base 4:4.4.1
 _ZN17KonqSidebarModuleD1Ev@Base 4:4.4.1
 _ZN17KonqSidebarModuleD2Ev@Base 4:4.4.1
 _ZN17KonqSidebarPlugin11qt_metacallEN11QMetaObject4CallEiPPv@Base 4:4.4.1
 _ZN17KonqSidebarPlugin11qt_metacastEPKc@Base 4:4.4.1
 _ZN17KonqSidebarPlugin16staticMetaObjectE@Base 4:4.4.1
 _ZNK17KonqSidebarModule10metaObjectEv@Base 4:4.4.1
 _ZNK17KonqSidebarModule12isCutEnabledEv@Base 4:4.4.1
 _ZNK17KonqSidebarModule13isCopyEnabledEv@Base 4:4.4.1
 _ZNK17KonqSidebarModule14isPasteEnabledEv@Base 4:4.4.1
 _ZNK17KonqSidebarModule19parentComponentDataEv@Base 4:4.4.1
 _ZNK17KonqSidebarPlugin10metaObjectEv@Base 4:4.4.1
 _ZTI17KonqSidebarModule@Base 4:4.4.1
 _ZTI17KonqSidebarPlugin@Base 4:4.4.1
 _ZTS17KonqSidebarModule@Base 4:4.4.1
 _ZTS17KonqSidebarPlugin@Base 4:4.4.1
 _ZTV17KonqSidebarModule@Base 4:4.4.1
 _ZTV17KonqSidebarPlugin@Base 4:4.4.1
