# SymbolsHelper-Confirmed: 4:4.5.86 amd64
libkonq.so.5 libkonq5a #MINVER#
 _ZN12KonqMimeData16populateMimeDataEP9QMimeDataRKN4KUrl4ListES5_b@Base 4:4.3.4
 _ZN12KonqMimeData17addIsCutSelectionEP9QMimeDatab@Base 4:4.3.4
 _ZN12KonqMimeData20decodeIsCutSelectionEPK9QMimeData@Base 4:4.3.4
 _ZN13KonqPopupMenu11qt_metacallEN11QMetaObject4CallEiPPv@Base 4:4.3.4
 _ZN13KonqPopupMenu11qt_metacastEPKc@Base 4:4.3.4
 _ZN13KonqPopupMenu11setURLTitleERK7QString@Base 4:4.3.4
 _ZN13KonqPopupMenu16staticMetaObjectE@Base 4:4.3.4
 _ZN13KonqPopupMenuC1ERK13KFileItemListRK4KUrlR17KActionCollectionP12KNewFileMenuj6QFlagsIN6KParts16BrowserExtension9PopupFlagEEP7QWidgetP16KBookmarkManagerRK4QMapI7QString5QListIP7QActionEE@Base 4:4.5.0
 _ZN13KonqPopupMenuC2ERK13KFileItemListRK4KUrlR17KActionCollectionP12KNewFileMenuj6QFlagsIN6KParts16BrowserExtension9PopupFlagEEP7QWidgetP16KBookmarkManagerRK4QMapI7QString5QListIP7QActionEE@Base 4:4.5.0
 _ZN13KonqPopupMenuD0Ev@Base 4:4.3.4
 _ZN13KonqPopupMenuD1Ev@Base 4:4.3.4
 _ZN13KonqPopupMenuD2Ev@Base 4:4.3.4
 _ZN14KonqCopyToMenu11setReadOnlyEb@Base 4:4.3.4
 _ZN14KonqCopyToMenu12addActionsToEP5QMenu@Base 4:4.3.4
 _ZN14KonqCopyToMenu7setUrlsERKN4KUrl4ListE@Base 4:4.3.4
 _ZN14KonqCopyToMenu8setItemsERK13KFileItemList@Base 4:4.3.4
 _ZN14KonqCopyToMenuC1EP7QWidget@Base 4:4.3.4
 _ZN14KonqCopyToMenuC1Ev@Base 4:4.3.4
 _ZN14KonqCopyToMenuC2EP7QWidget@Base 4:4.3.4
 _ZN14KonqCopyToMenuC2Ev@Base 4:4.3.4
 _ZN14KonqCopyToMenuD1Ev@Base 4:4.3.4
 _ZN14KonqCopyToMenuD2Ev@Base 4:4.3.4
 _ZN14KonqOperations10emptyTrashEP7QWidget@Base 4:4.3.4
 _ZN14KonqOperations10slotResultEP4KJob@Base 4:4.3.4
 _ZN14KonqOperations11qt_metacallEN11QMetaObject4CallEiPPv@Base 4:4.3.4
 _ZN14KonqOperations11qt_metacastEPKc@Base 4:4.3.4
 _ZN14KonqOperations12editMimeTypeERK7QStringP7QWidget@Base 4:4.3.4
 _ZN14KonqOperations12setOperationEPN3KIO3JobENS_9OperationERK4KUrl@Base 4:4.3.4
 _ZN14KonqOperations12statFinishedERK9KFileItem@Base 4:4.3.4
 _ZN14KonqOperations13aboutToCreateERK6QPointRK5QListIN3KIO8CopyInfoEE@Base 4:4.3.4
 _ZN14KonqOperations14doDropFileCopyEv@Base 4:4.3.4
 _ZN14KonqOperations14slotStatResultEP4KJob@Base 4:4.3.4
 _ZN14KonqOperations16staticMetaObjectE@Base 4:4.3.4
 _ZN14KonqOperations17_addPluginActionsER5QListIP7QActionERK4KUrlRK23KFileItemListProperties@Base 4:4.3.4
 _ZN14KonqOperations17slotAboutToCreateEPN3KIO3JobERK5QListINS0_8CopyInfoEE@Base 4:4.3.4
 _ZN14KonqOperations19restoreTrashedItemsERKN4KUrl4ListEP7QWidget@Base 4:4.3.4
 _ZN14KonqOperations20_restoreTrashedItemsERKN4KUrl4ListE@Base 4:4.3.4
 _ZN14KonqOperations21askDeleteConfirmationERKN4KUrl4ListEiNS_16ConfirmationTypeEP7QWidget@Base 4:4.3.4
 _ZN14KonqOperations3delEP7QWidgetNS_9OperationERKN4KUrl4ListE@Base 4:4.3.4
 _ZN14KonqOperations4_delENS_9OperationERKN4KUrl4ListENS_16ConfirmationTypeE@Base 4:4.3.4
 _ZN14KonqOperations4copyEP7QWidgetNS_9OperationERKN4KUrl4ListERKS3_@Base 4:4.3.4
 _ZN14KonqOperations5mkdirEP7QWidgetRK4KUrl@Base 4:4.3.4
 _ZN14KonqOperations6doDropERK9KFileItemRK4KUrlP10QDropEventP7QWidget@Base 4:4.3.4
 _ZN14KonqOperations6doDropERK9KFileItemRK4KUrlP10QDropEventP7QWidgetRK5QListIP7QActionE@Base 4:4.3.4
 _ZN14KonqOperations6newDirEP7QWidgetRK4KUrl6QFlagsINS_10NewDirFlagEE@Base 4:4.4.1
 _ZN14KonqOperations6newDirEP7QWidgetRK4KUrl@Base 4:4.3.4
 _ZN14KonqOperations6renameEP7QWidgetRK4KUrlRK7QString@Base 4:4.3.4
 _ZN14KonqOperations6renameEP7QWidgetRK4KUrlS4_@Base 4:4.3.4
 _ZN14KonqOperations7doPasteEP7QWidgetRK4KUrlRK6QPoint@Base 4:4.3.4
 _ZN14KonqOperations7statUrlERK4KUrlPK7QObjectPKcP7QWidget@Base 4:4.3.4
 _ZN14KonqOperations8_statUrlERK4KUrlPK7QObjectPKc@Base 4:4.3.4
 _ZN14KonqOperations9asyncDropERK9KFileItem@Base 4:4.3.4
 _ZN14KonqOperations9pasteInfoERK4KUrl@Base 4:4.3.4
 _ZN14KonqOperationsC1EP7QWidget@Base 4:4.3.4
 _ZN14KonqOperationsC2EP7QWidget@Base 4:4.3.4
 _ZN14KonqOperationsD0Ev@Base 4:4.3.4
 _ZN14KonqOperationsD1Ev@Base 4:4.3.4
 _ZN14KonqOperationsD2Ev@Base 4:4.3.4
 _ZN15KonqConfigEvent17s_configEventNameE@Base 4:4.3.4
 _ZN15KonqHistoryList11removeEntryERK4KUrl@Base 4:4.3.4
 _ZN15KonqHistoryList9findEntryERK4KUrl@Base 4:4.3.4
 _ZN15KonqMenuActions12addActionsToEP5QMenu@Base 4:4.3.4
 _ZN15KonqMenuActions15setParentWidgetEP7QWidget@Base 4:4.3.4
 _ZN15KonqMenuActions16setPopupMenuInfoERK24KonqPopupMenuInformation@Base 4:4.3.4
 _ZN15KonqMenuActions20addOpenWithActionsToEP5QMenuRK7QString@Base 4:4.3.4
 _ZN15KonqMenuActions21setItemListPropertiesERK23KFileItemListProperties@Base 4:4.3.4
 _ZN15KonqMenuActions23preferredOpenWithActionERK7QString@Base 4:4.3.4
 _ZN15KonqMenuActionsC1Ev@Base 4:4.3.4
 _ZN15KonqMenuActionsC2Ev@Base 4:4.3.4
 _ZN15KonqMenuActionsD1Ev@Base 4:4.3.4
 _ZN15KonqMenuActionsD2Ev@Base 4:4.3.4
 _ZN16KonqHistoryEntry4loadER11QDataStreamNS_5FlagsE@Base 4:4.3.4
 _ZN16KonqHistoryEntryC1ERKS_@Base 4:4.3.4
 _ZN16KonqHistoryEntryC1Ev@Base 4:4.3.4
 _ZN16KonqHistoryEntryC2ERKS_@Base 4:4.3.4
 _ZN16KonqHistoryEntryC2Ev@Base 4:4.3.4
 _ZN16KonqHistoryEntryD1Ev@Base 4:4.3.4
 _ZN16KonqHistoryEntryD2Ev@Base 4:4.3.4
 _ZN19KonqHistoryProvider10entryAddedERK16KonqHistoryEntry@Base 4:4.3.4
 _ZN19KonqHistoryProvider11loadHistoryEv@Base 4:4.3.4
 _ZN19KonqHistoryProvider11qt_metacallEN11QMetaObject4CallEiPPv@Base 4:4.3.4
 _ZN19KonqHistoryProvider11qt_metacastEPKc@Base 4:4.3.4
 _ZN19KonqHistoryProvider11removeEntryEN5QListI16KonqHistoryEntryE8iteratorE@Base 4:4.3.4
 _ZN19KonqHistoryProvider12entryRemovedERK16KonqHistoryEntry@Base 4:4.3.4
 _ZN19KonqHistoryProvider13emitSetMaxAgeEi@Base 4:4.3.4
 _ZN19KonqHistoryProvider15emitSetMaxCountEi@Base 4:4.3.4
 _ZN19KonqHistoryProvider16emitAddToHistoryERK16KonqHistoryEntry@Base 4:4.3.4
 _ZN19KonqHistoryProvider16staticMetaObjectE@Base 4:4.3.4
 _ZN19KonqHistoryProvider17finishAddingEntryERK16KonqHistoryEntryb@Base 4:4.3.4
 _ZN19KonqHistoryProvider21emitRemoveFromHistoryERK4KUrl@Base 4:4.3.4
 _ZN19KonqHistoryProvider25emitRemoveListFromHistoryERKN4KUrl4ListE@Base 4:4.3.4
 _ZN19KonqHistoryProvider9emitClearEv@Base 4:4.3.4
 _ZN19KonqHistoryProvider9findEntryERK4KUrl@Base 4:4.3.4
 _ZN19KonqHistoryProviderC1EP7QObject@Base 4:4.3.4
 _ZN19KonqHistoryProviderC2EP7QObject@Base 4:4.3.4
 _ZN19KonqHistoryProviderD0Ev@Base 4:4.3.4
 _ZN19KonqHistoryProviderD1Ev@Base 4:4.3.4
 _ZN19KonqHistoryProviderD2Ev@Base 4:4.3.4
 _ZN19KonqPopupMenuPlugin11qt_metacallEN11QMetaObject4CallEiPPv@Base 4:4.3.4
 _ZN19KonqPopupMenuPlugin11qt_metacastEPKc@Base 4:4.3.4
 _ZN19KonqPopupMenuPlugin16staticMetaObjectE@Base 4:4.3.4
 _ZN19KonqPopupMenuPluginC1EP7QObject@Base 4:4.3.4
 _ZN19KonqPopupMenuPluginC2EP7QObject@Base 4:4.3.4
 _ZN19KonqPopupMenuPluginD0Ev@Base 4:4.3.4
 _ZN19KonqPopupMenuPluginD1Ev@Base 4:4.3.4
 _ZN19KonqPopupMenuPluginD2Ev@Base 4:4.3.4
 _ZN21KVersionControlPlugin11infoMessageERK7QString@Base 4:4.4.1
 _ZN21KVersionControlPlugin11qt_metacallEN11QMetaObject4CallEiPPv@Base 4:4.4.1
 _ZN21KVersionControlPlugin11qt_metacastEPKc@Base 4:4.4.1
 _ZN21KVersionControlPlugin12errorMessageERK7QString@Base 4:4.4.1
 _ZN21KVersionControlPlugin16staticMetaObjectE@Base 4:4.4.1
 _ZN21KVersionControlPlugin20versionStatesChangedEv@Base 4:4.4.1
 _ZN21KVersionControlPlugin25operationCompletedMessageERK7QString@Base 4:4.4.1
 _ZN21KVersionControlPluginC1EP7QObject@Base 4:4.4.1
 _ZN21KVersionControlPluginC2EP7QObject@Base 4:4.4.1
 _ZN21KVersionControlPluginD0Ev@Base 4:4.4.1
 _ZN21KVersionControlPluginD1Ev@Base 4:4.4.1
 _ZN21KVersionControlPluginD2Ev@Base 4:4.4.1
 _ZN22KonqDndPopupMenuPlugin11qt_metacallEN11QMetaObject4CallEiPPv@Base 4:4.3.4
 _ZN22KonqDndPopupMenuPlugin11qt_metacastEPKc@Base 4:4.3.4
 _ZN22KonqDndPopupMenuPlugin16staticMetaObjectE@Base 4:4.3.4
 _ZN22KonqDndPopupMenuPluginC1EP7QObject@Base 4:4.3.4
 _ZN22KonqDndPopupMenuPluginC2EP7QObject@Base 4:4.3.4
 _ZN22KonqDndPopupMenuPluginD0Ev@Base 4:4.3.4
 _ZN22KonqDndPopupMenuPluginD1Ev@Base 4:4.3.4
 _ZN22KonqDndPopupMenuPluginD2Ev@Base 4:4.3.4
 _ZN22KonqFileMouseOverEvent28s_fileItemMouseOverEventNameE@Base 4:4.3.4
 _ZN22KonqFileSelectionEvent28s_fileItemSelectionEventNameE@Base 4:4.3.4
 _ZN24KonqFileItemCapabilities8setItemsERK13KFileItemList@Base 4:4.3.4
 _ZN24KonqFileItemCapabilitiesC1ERK13KFileItemList@Base 4:4.3.4
 _ZN24KonqFileItemCapabilitiesC1ERKS_@Base 4:4.3.4
 _ZN24KonqFileItemCapabilitiesC1Ev@Base 4:4.3.4
 _ZN24KonqFileItemCapabilitiesC2ERK13KFileItemList@Base 4:4.3.4
 _ZN24KonqFileItemCapabilitiesC2ERKS_@Base 4:4.3.4
 _ZN24KonqFileItemCapabilitiesC2Ev@Base 4:4.3.4
 _ZN24KonqFileItemCapabilitiesD0Ev@Base 4:4.3.4
 _ZN24KonqFileItemCapabilitiesD1Ev@Base 4:4.3.4
 _ZN24KonqFileItemCapabilitiesD2Ev@Base 4:4.3.4
 _ZN24KonqFileItemCapabilitiesaSERKS_@Base 4:4.3.4
 _ZN24KonqPopupMenuInformation15setParentWidgetEP7QWidget@Base 4:4.3.4
 _ZN24KonqPopupMenuInformation21setItemListPropertiesERK23KFileItemListProperties@Base 4:4.3.4
 _ZN24KonqPopupMenuInformation8setItemsERK13KFileItemList@Base 4:4.3.4
 _ZN24KonqPopupMenuInformationC1ERKS_@Base 4:4.3.4
 _ZN24KonqPopupMenuInformationC1Ev@Base 4:4.3.4
 _ZN24KonqPopupMenuInformationC2ERKS_@Base 4:4.3.4
 _ZN24KonqPopupMenuInformationC2Ev@Base 4:4.3.4
 _ZN24KonqPopupMenuInformationD1Ev@Base 4:4.3.4
 _ZN24KonqPopupMenuInformationD2Ev@Base 4:4.3.4
 _ZN24KonqPopupMenuInformationaSERKS_@Base 4:4.3.4
 _ZN25KonqNameAndUrlInputDialog11qt_metacallEN11QMetaObject4CallEiPPv@Base 4:4.4.1
 _ZN25KonqNameAndUrlInputDialog11qt_metacastEPKc@Base 4:4.4.1
 _ZN25KonqNameAndUrlInputDialog15setSuggestedUrlERK4KUrl@Base 4:4.4.1
 _ZN25KonqNameAndUrlInputDialog16setSuggestedNameERK7QString@Base 4:4.4.1
 _ZN25KonqNameAndUrlInputDialog16staticMetaObjectE@Base 4:4.4.1
 _ZN25KonqNameAndUrlInputDialogC1ERK7QStringS2_RK4KUrlP7QWidget@Base 4:4.4.1
 _ZN25KonqNameAndUrlInputDialogC2ERK7QStringS2_RK4KUrlP7QWidget@Base 4:4.4.1
 _ZN25KonqNameAndUrlInputDialogD0Ev@Base 4:4.4.1
 _ZN25KonqNameAndUrlInputDialogD1Ev@Base 4:4.4.1
 _ZN25KonqNameAndUrlInputDialogD2Ev@Base 4:4.4.1
 _ZN25KonqStatusBarMessageLabel10paintEventEP11QPaintEvent@Base 4:4.5.86
 _ZN25KonqStatusBarMessageLabel10setMessageERK7QStringNS_4TypeE@Base 4:4.5.86
 _ZN25KonqStatusBarMessageLabel11qt_metacallEN11QMetaObject4CallEiPPv@Base 4:4.5.86
 _ZN25KonqStatusBarMessageLabel11qt_metacastEPKc@Base 4:4.5.86
 _ZN25KonqStatusBarMessageLabel11resizeEventEP12QResizeEvent@Base 4:4.5.86
 _ZN25KonqStatusBarMessageLabel14setDefaultTextERK7QString@Base 4:4.5.86
 _ZN25KonqStatusBarMessageLabel16staticMetaObjectE@Base 4:4.5.86
 _ZN25KonqStatusBarMessageLabel17assureVisibleTextEv@Base 4:4.5.86
 _ZN25KonqStatusBarMessageLabel17closeErrorMessageEv@Base 4:4.5.86
 _ZN25KonqStatusBarMessageLabel18showPendingMessageEv@Base 4:4.5.86
 _ZN25KonqStatusBarMessageLabel20setMinimumTextHeightEi@Base 4:4.5.86
 _ZN25KonqStatusBarMessageLabel25updateCloseButtonPositionEv@Base 4:4.5.86
 _ZN25KonqStatusBarMessageLabel5resetEv@Base 4:4.5.86
 _ZN25KonqStatusBarMessageLabel9timerDoneEv@Base 4:4.5.86
 _ZN25KonqStatusBarMessageLabelC1EP7QWidget@Base 4:4.5.86
 _ZN25KonqStatusBarMessageLabelC2EP7QWidget@Base 4:4.5.86
 _ZN25KonqStatusBarMessageLabelD0Ev@Base 4:4.5.86
 _ZN25KonqStatusBarMessageLabelD1Ev@Base 4:4.5.86
 _ZN25KonqStatusBarMessageLabelD2Ev@Base 4:4.5.86
 _ZN8KNewMenu11qt_metacallEN11QMetaObject4CallEiPPv@Base 4:4.3.4
 _ZN8KNewMenu11qt_metacastEPKc@Base 4:4.3.4
 _ZN8KNewMenu16staticMetaObjectE@Base 4:4.3.4
 _ZN8KNewMenuC1EP17KActionCollectionP7QWidgetRK7QString@Base 4:4.3.4
 _ZN8KNewMenuC2EP17KActionCollectionP7QWidgetRK7QString@Base 4:4.3.4
 _ZNK13KonqPopupMenu10metaObjectEv@Base 4:4.3.4
 _ZNK14KonqOperations10metaObjectEv@Base 4:4.3.4
 _ZNK14KonqOperations11droppedUrlsEv@Base 4:4.3.4
 _ZNK14KonqOperations12dropPositionEv@Base 4:4.3.4
 _ZNK14KonqOperations12parentWidgetEv@Base 4:4.3.4
 _ZNK15KonqHistoryList14constFindEntryERK4KUrl@Base 4:4.3.4
 _ZNK16KonqHistoryEntry4saveER11QDataStreamNS_5FlagsE@Base 4:4.3.4
 _ZNK16KonqHistoryEntryeqERKS_@Base 4:4.3.4
 _ZNK19KonqHistoryProvider10metaObjectEv@Base 4:4.3.4
 _ZNK19KonqHistoryProvider14constFindEntryERK4KUrl@Base 4:4.3.4
 _ZNK19KonqHistoryProvider6maxAgeEv@Base 4:4.3.4
 _ZNK19KonqHistoryProvider7entriesEv@Base 4:4.3.4
 _ZNK19KonqHistoryProvider8maxCountEv@Base 4:4.3.4
 _ZNK19KonqPopupMenuPlugin10metaObjectEv@Base 4:4.3.4
 _ZNK21KVersionControlPlugin10metaObjectEv@Base 4:4.4.1
 _ZNK22KonqDndPopupMenuPlugin10metaObjectEv@Base 4:4.3.4
 _ZNK24KonqFileItemCapabilities14supportsMovingEv@Base 4:4.3.4
 _ZNK24KonqFileItemCapabilities15supportsReadingEv@Base 4:4.3.4
 _ZNK24KonqFileItemCapabilities15supportsWritingEv@Base 4:4.3.4
 _ZNK24KonqFileItemCapabilities16supportsDeletingEv@Base 4:4.3.4
 _ZNK24KonqFileItemCapabilities7isLocalEv@Base 4:4.3.4
 _ZNK24KonqPopupMenuInformation11isDirectoryEv@Base 4:4.3.4
 _ZNK24KonqPopupMenuInformation12capabilitiesEv@Base 4:4.3.4
 _ZNK24KonqPopupMenuInformation12parentWidgetEv@Base 4:4.3.4
 _ZNK24KonqPopupMenuInformation18itemListPropertiesEv@Base 4:4.3.4
 _ZNK24KonqPopupMenuInformation5itemsEv@Base 4:4.3.4
 _ZNK24KonqPopupMenuInformation7urlListEv@Base 4:4.3.4
 _ZNK24KonqPopupMenuInformation8mimeTypeEv@Base 4:4.3.4
 _ZNK24KonqPopupMenuInformation9mimeGroupEv@Base 4:4.3.4
 _ZNK25KonqNameAndUrlInputDialog10metaObjectEv@Base 4:4.4.1
 _ZNK25KonqNameAndUrlInputDialog3urlEv@Base 4:4.4.1
 _ZNK25KonqNameAndUrlInputDialog4nameEv@Base 4:4.4.1
 _ZNK25KonqStatusBarMessageLabel10metaObjectEv@Base 4:4.5.86
 _ZNK25KonqStatusBarMessageLabel11defaultTextEv@Base 4:4.5.86
 _ZNK25KonqStatusBarMessageLabel15minimumSizeHintEv@Base 4:4.5.86
 _ZNK25KonqStatusBarMessageLabel17minimumTextHeightEv@Base 4:4.5.86
 _ZNK25KonqStatusBarMessageLabel18availableTextWidthEv@Base 4:4.5.86
 _ZNK25KonqStatusBarMessageLabel4textEv@Base 4:4.5.86
 _ZNK25KonqStatusBarMessageLabel4typeEv@Base 4:4.5.86
 _ZNK25KonqStatusBarMessageLabel8sizeHintEv@Base 4:4.5.86
 _ZNK8KNewMenu10metaObjectEv@Base 4:4.3.4
 _ZTI13KonqPopupMenu@Base 4:4.3.4
 _ZTI14KonqOperations@Base 4:4.3.4
 _ZTI19KonqHistoryProvider@Base 4:4.3.4
 _ZTI19KonqPopupMenuPlugin@Base 4:4.3.4
 _ZTI21KVersionControlPlugin@Base 4:4.4.1
 _ZTI22KonqDndPopupMenuPlugin@Base 4:4.3.4
 _ZTI24KonqFileItemCapabilities@Base 4:4.3.4
 _ZTI25KonqNameAndUrlInputDialog@Base 4:4.4.1
 _ZTI25KonqStatusBarMessageLabel@Base 4:4.5.86
 _ZTI8KNewMenu@Base 4:4.3.4
 _ZTS13KonqPopupMenu@Base 4:4.3.4
 _ZTS14KonqOperations@Base 4:4.3.4
 _ZTS19KonqHistoryProvider@Base 4:4.3.4
 _ZTS19KonqPopupMenuPlugin@Base 4:4.3.4
 _ZTS21KVersionControlPlugin@Base 4:4.4.1
 _ZTS22KonqDndPopupMenuPlugin@Base 4:4.3.4
 _ZTS24KonqFileItemCapabilities@Base 4:4.3.4
 _ZTS25KonqNameAndUrlInputDialog@Base 4:4.4.1
 _ZTS25KonqStatusBarMessageLabel@Base 4:4.5.86
 _ZTS8KNewMenu@Base 4:4.3.4
 _ZTV13KonqPopupMenu@Base 4:4.3.4
 _ZTV14KonqOperations@Base 4:4.3.4
 _ZTV19KonqHistoryProvider@Base 4:4.3.4
 _ZTV19KonqPopupMenuPlugin@Base 4:4.3.4
 _ZTV21KVersionControlPlugin@Base 4:4.4.1
 _ZTV22KonqDndPopupMenuPlugin@Base 4:4.3.4
 _ZTV24KonqFileItemCapabilities@Base 4:4.3.4
 _ZTV25KonqNameAndUrlInputDialog@Base 4:4.4.1
 _ZTV25KonqStatusBarMessageLabel@Base 4:4.5.86
 _ZTV8KNewMenu@Base 4:4.3.4
 (c++)"non-virtual thunk to KonqNameAndUrlInputDialog::~KonqNameAndUrlInputDialog()@Base" 4:4.4.1
 (c++)"non-virtual thunk to KonqPopupMenu::~KonqPopupMenu()@Base" 4:4.3.4
 (c++)"non-virtual thunk to KonqStatusBarMessageLabel::~KonqStatusBarMessageLabel()@Base" 4:4.5.86
